target datalayout = "e-m:e-p270:32:32-p271:32:32-p272:64:64-i64:64-i128:128-f80:128-n8:16:32:64-S128"
target triple = "x86_64-pc-linux-gnu"

%struct.sparse_array_st = type { i32, i64, i64, ptr }

; Function Attrs: nounwind uwtable
define ptr @ossl_sa_get(ptr noundef %0, i64 noundef %1) #0 {
  %3 = alloca ptr, align 8
  %4 = alloca ptr, align 8
  %5 = alloca i64, align 8
  %6 = alloca i32, align 4
  %7 = alloca ptr, align 8
  %8 = alloca ptr, align 8
  %9 = alloca i32, align 4
  store ptr %0, ptr %4, align 8, !tbaa !3
  store i64 %1, ptr %5, align 8, !tbaa !9
  call void @llvm.lifetime.start.p0(i64 4, ptr %6) #4
  call void @llvm.lifetime.start.p0(i64 8, ptr %7) #4
  call void @llvm.lifetime.start.p0(i64 8, ptr %8) #4
  store ptr null, ptr %8, align 8, !tbaa !8
  %10 = load ptr, ptr %4, align 8, !tbaa !3
  %11 = icmp eq ptr %10, null
  br i1 %11, label %17, label %12

12:                                               ; preds = %2
  %13 = load ptr, ptr %4, align 8, !tbaa !3
  %14 = getelementptr inbounds nuw %struct.sparse_array_st, ptr %13, i32 0, i32 2
  %15 = load i64, ptr %14, align 8, !tbaa !20
  %16 = icmp eq i64 %15, 0
  br i1 %16, label %17, label %18

17:                                               ; preds = %12, %2
  store ptr null, ptr %3, align 8
  store i32 1, ptr %9, align 4
  br label %67

18:                                               ; preds = %12
  %19 = load i64, ptr %5, align 8, !tbaa !9
  %20 = load ptr, ptr %4, align 8, !tbaa !3
  %21 = getelementptr inbounds nuw %struct.sparse_array_st, ptr %20, i32 0, i32 1
  %22 = load i64, ptr %21, align 8, !tbaa !21
  %23 = icmp ule i64 %19, %22
  br i1 %23, label %24, label %65

24:                                               ; preds = %18
  %25 = load ptr, ptr %4, align 8, !tbaa !3
  %26 = getelementptr inbounds nuw %struct.sparse_array_st, ptr %25, i32 0, i32 3
  %27 = load ptr, ptr %26, align 8, !tbaa !13
  store ptr %27, ptr %7, align 8, !tbaa !8
  %28 = load ptr, ptr %4, align 8, !tbaa !3
  %29 = getelementptr inbounds nuw %struct.sparse_array_st, ptr %28, i32 0, i32 0
  %30 = load i32, ptr %29, align 8, !tbaa !15
  %31 = sub nsw i32 %30, 1
  store i32 %31, ptr %6, align 4, !tbaa !11
  br label %32

32:                                               ; preds = %50, %24
  %33 = load ptr, ptr %7, align 8, !tbaa !8
  %34 = icmp ne ptr %33, null
  br i1 %34, label %35, label %38

35:                                               ; preds = %32
  %36 = load i32, ptr %6, align 4, !tbaa !11
  %37 = icmp sgt i32 %36, 0
  br label %38

38:                                               ; preds = %35, %32
  %39 = phi i1 [ false, %32 ], [ %37, %35 ]
  br i1 %39, label %40, label %53

40:                                               ; preds = %38
  %41 = load ptr, ptr %7, align 8, !tbaa !8
  %42 = load i64, ptr %5, align 8, !tbaa !9
  %43 = load i32, ptr %6, align 4, !tbaa !11
  %44 = mul nsw i32 4, %43
  %45 = zext i32 %44 to i64
  %46 = lshr i64 %42, %45
  %47 = and i64 %46, 15
  %48 = getelementptr inbounds nuw ptr, ptr %41, i64 %47
  %49 = load ptr, ptr %48, align 8, !tbaa !8
  store ptr %49, ptr %7, align 8, !tbaa !8
  br label %50

50:                                               ; preds = %40
  %51 = load i32, ptr %6, align 4, !tbaa !11
  %52 = add nsw i32 %51, -1
  store i32 %52, ptr %6, align 4, !tbaa !11
  br label %32, !llvm.loop !22

53:                                               ; preds = %38
  %54 = load ptr, ptr %7, align 8, !tbaa !8
  %55 = icmp eq ptr %54, null
  br i1 %55, label %56, label %57

56:                                               ; preds = %53
  br label %63

57:                                               ; preds = %53
  %58 = load ptr, ptr %7, align 8, !tbaa !8
  %59 = load i64, ptr %5, align 8, !tbaa !9
  %60 = and i64 %59, 15
  %61 = getelementptr inbounds nuw ptr, ptr %58, i64 %60
  %62 = load ptr, ptr %61, align 8, !tbaa !8
  br label %63

63:                                               ; preds = %57, %56
  %64 = phi ptr [ null, %56 ], [ %62, %57 ]
  store ptr %64, ptr %8, align 8, !tbaa !8
  br label %65

65:                                               ; preds = %63, %18
  %66 = load ptr, ptr %8, align 8, !tbaa !8
  store ptr %66, ptr %3, align 8
  store i32 1, ptr %9, align 4
  br label %67

67:                                               ; preds = %65, %17
  call void @llvm.lifetime.end.p0(i64 8, ptr %8) #4
  call void @llvm.lifetime.end.p0(i64 8, ptr %7) #4
  call void @llvm.lifetime.end.p0(i64 4, ptr %6) #4
  %68 = load ptr, ptr %3, align 8
  ret ptr %68
}