; Function Attrs: nofree norecurse nosync nounwind memory(read, inaccessiblemem: none) uwtable
define ptr @ossl_sa_get(ptr noundef readonly captures(address_is_null) %0, i64 noundef %1) local_unnamed_addr #4 {
  %3 = icmp eq ptr %0, null
  br i1 %3, label %30, label %4

4:                                                ; preds = %2
  %5 = getelementptr inbounds nuw i8, ptr %0, i64 16
  %6 = load i64, ptr %5, align 8, !tbaa !15
  %7 = icmp eq i64 %6, 0
  br i1 %7, label %30, label %8

8:                                                ; preds = %4
  %9 = getelementptr inbounds nuw i8, ptr %0, i64 8
  %10 = load i64, ptr %9, align 8, !tbaa !16
  %.not = icmp ugt i64 %1, %10
  br i1 %.not, label %30, label %11

11:                                               ; preds = %8
  %12 = getelementptr inbounds nuw i8, ptr %0, i64 24
  %13 = load i32, ptr %0, align 8, !tbaa !12
  %.01621 = load ptr, ptr %12, align 8, !tbaa !11
  %14 = icmp ne ptr %.01621, null
  %15 = icmp sgt i32 %13, 1
  %16 = select i1 %14, i1 %15, i1 false
  br i1 %16, label %.lr.ph.preheader, label %._crit_edge

.lr.ph.preheader:                                 ; preds = %11
  %17 = zext nneg i32 %13 to i64
  br label %.lr.ph

.lr.ph:                                           ; preds = %.lr.ph.preheader, %.lr.ph
  %indvars.iv = phi i64 [ %17, %.lr.ph.preheader ], [ %indvars.iv.next, %.lr.ph ]
  %.01623 = phi ptr [ %.01621, %.lr.ph.preheader ], [ %.016, %.lr.ph ]
  %indvars.iv.next = add nsw i64 %indvars.iv, -1
  %18 = shl nsw i64 %indvars.iv.next, 2
  %19 = lshr i64 %1, %18
  %20 = and i64 %19, 15
  %21 = getelementptr inbounds nuw ptr, ptr %.01623, i64 %20
  %.016 = load ptr, ptr %21, align 8, !tbaa !11
  %22 = icmp ne ptr %.016, null
  %23 = icmp samesign ugt i64 %indvars.iv, 2
  %24 = and i1 %22, %23
  br i1 %24, label %.lr.ph, label %._crit_edge, !llvm.loop !17

._crit_edge:                                      ; preds = %.lr.ph, %11
  %.016.lcssa = phi ptr [ %.01621, %11 ], [ %.016, %.lr.ph ]
  %25 = icmp eq ptr %.016.lcssa, null
  br i1 %25, label %30, label %26

26:                                               ; preds = %._crit_edge
  %27 = and i64 %1, 15
  %28 = getelementptr inbounds nuw ptr, ptr %.016.lcssa, i64 %27
  %29 = load ptr, ptr %28, align 8, !tbaa !11
  br label %30

30:                                               ; preds = %8, %._crit_edge, %26, %2, %4
  %.018 = phi ptr [ null, %4 ], [ null, %2 ], [ null, %8 ], [ %29, %26 ], [ null, %._crit_edge ]
  ret ptr %.018
}